; Function Attrs: mustprogress uwtable
define void @_ZNK3g2o7cholmod7Cholmod5solveEPdS2_(ptr noundef nonnull readonly align 8 captures(none) dereferenceable(8) %0, ptr noundef writeonly captures(none) %1, ptr noundef %2) local_unnamed_addr #0 align 2 {
  %4 = alloca %struct.cholmod_dense_struct, align 8
  %5 = alloca ptr, align 8
  call void @llvm.lifetime.start.p0(i64 56, ptr nonnull %4) #15
  %6 = load ptr, ptr %0, align 8, !tbaa !29
  %7 = getelementptr inbounds nuw i8, ptr %6, i64 2664
  %8 = load i64, ptr %7, align 8, !tbaa !39
  %9 = getelementptr inbounds nuw i8, ptr %4, i64 24
  store i64 %8, ptr %9, align 8, !tbaa !51
  store i64 %8, ptr %4, align 8, !tbaa !53
  %10 = getelementptr inbounds nuw i8, ptr %4, i64 8
  store i64 1, ptr %10, align 8, !tbaa !54
  %11 = getelementptr inbounds nuw i8, ptr %4, i64 32
  store ptr %2, ptr %11, align 8, !tbaa !55
  %12 = getelementptr inbounds nuw i8, ptr %4, i64 48
  store i32 1, ptr %12, align 8, !tbaa !56
  %13 = getelementptr inbounds nuw i8, ptr %4, i64 52
  store i32 0, ptr %13, align 4, !tbaa !57
  call void @llvm.lifetime.start.p0(i64 8, ptr nonnull %5) #15
  %14 = getelementptr inbounds nuw i8, ptr %6, i64 2760
  %15 = load ptr, ptr %14, align 8, !tbaa !20
  %16 = call ptr @cholmod_solve(i32 noundef 0, ptr noundef %15, ptr noundef nonnull %4, ptr noundef %6)
  store ptr %16, ptr %5, align 8, !tbaa !58
  %17 = getelementptr inbounds nuw i8, ptr %16, i64 32
  %18 = load ptr, ptr %17, align 8, !tbaa !55
  %19 = load i64, ptr %4, align 8, !tbaa !53
  %20 = shl i64 %19, 3
  call void @llvm.memcpy.p0.p0.i64(ptr align 8 %1, ptr align 1 %18, i64 %20, i1 false)
  %21 = load ptr, ptr %0, align 8, !tbaa !29
  %22 = call i32 @cholmod_free_dense(ptr noundef nonnull %5, ptr noundef %21)
  call void @llvm.lifetime.end.p0(i64 8, ptr nonnull %5) #15
  call void @llvm.lifetime.end.p0(i64 56, ptr nonnull %4) #15
  ret void
}